(dp0
S'frank'
p1
(iUser
User
p2
(dp3
S'userName'
p4
g1
sS'shared'
p5
S'1234'
p6
sS'base'
p7
I5
sS'pub'
p8
L2356601474L
sS'mod'
p9
I23
sbsS'mac'
p10
(iUser
User
p11
(dp12
g4
g10
sg5
S'6'
p13
sg7
S'5'
p14
sg8
S'11'
p15
sg9
S'23'
p16
sbs.