(dp0
S'frank'
p1
(iUser
User
p2
(dp3
S'userName'
p4
g1
sS'shared'
p5
S'6'
p6
sS'base'
p7
S'5'
p8
sS'pub'
p9
S'2'
p10
sS'mod'
p11
S'23'
p12
sbsS'mac'
p13
(iUser
User
p14
(dp15
g4
g13
sg5
S'4321'
p16
sg7
I5
sg9
L1058722862L
sg11
I23
sbs.