(dp0
S'bob'
p1
(iUser
User
p2
(dp3
S'userName'
p4
g1
sS'shared'
p5
L4L
sS'base'
p6
S'5'
p7
sS'pub'
p8
S'2'
p9
sS'mod'
p10
S'23'
p11
sbsS'frankie'
p12
(iUser
User
p13
(dp14
g4
g12
sg5
S'1234'
p15
sg6
I5
sg8
L2423412686L
sg10
I23
sbsS'joe'
p16
(iUser
User
p17
(dp18
g4
g16
sg5
I-1
sg6
S'5'
p19
sg8
S'15'
p20
sg10
S'23'
p21
sbs.